; ModuleID = '58/714.c'
source_filename = "58/714.c"
target datalayout = "e-m:e-p270:32:32-p271:32:32-p272:64:64-i64:64-f80:128-n8:16:32:64-S128"
target triple = "x86_64-pc-linux-gnu"

@.str = private unnamed_addr constant [3 x i8] c"%d\00", align 1
@.str.1 = private unnamed_addr constant [3 x i8] c"1\0A\00", align 1
@.str.2 = private unnamed_addr constant [3 x i8] c"0\0A\00", align 1

; Function Attrs: noinline nounwind uwtable
define dso_local i32 @main() #0 {
  %1 = alloca i32, align 4
  %2 = alloca i32, align 4
  %3 = alloca i32, align 4
  %4 = alloca i32, align 4
  %5 = alloca [100 x [80 x i32]], align 16
  %6 = alloca [100 x i32], align 16
  %7 = alloca i32, align 4
  %8 = alloca [100 x [80 x i8]], align 16
  store i32 0, i32* %1, align 4
  %9 = bitcast [100 x [80 x i32]]* %5 to i8*
  call void @llvm.memset.p0i8.i64(i8* align 16 %9, i8 0, i64 32000, i1 false)
  %10 = bitcast [100 x i32]* %6 to i8*
  call void @llvm.memset.p0i8.i64(i8* align 16 %10, i8 0, i64 400, i1 false)
  %11 = call i32 (i8*, ...) @__isoc99_scanf(i8* getelementptr inbounds ([3 x i8], [3 x i8]* @.str, i64 0, i64 0), i32* %2)
  %12 = call i32 @getchar()
  store i32 0, i32* %3, align 4
  br label %13

13:                                               ; preds = %185, %0
  %14 = load i32, i32* %3, align 4
  %15 = load i32, i32* %2, align 4
  %16 = icmp slt i32 %14, %15
  br i1 %16, label %17, label %188

17:                                               ; preds = %13
  %18 = load i32, i32* %3, align 4
  %19 = sext i32 %18 to i64
  %20 = getelementptr inbounds [100 x [80 x i8]], [100 x [80 x i8]]* %8, i64 0, i64 %19
  %21 = getelementptr inbounds [80 x i8], [80 x i8]* %20, i64 0, i64 0
  %22 = call i32 (i8*, ...) bitcast (i32 (...)* @gets to i32 (i8*, ...)*)(i8* %21)
  %23 = load i32, i32* %3, align 4
  %24 = sext i32 %23 to i64
  %25 = getelementptr inbounds [100 x [80 x i8]], [100 x [80 x i8]]* %8, i64 0, i64 %24
  %26 = getelementptr inbounds [80 x i8], [80 x i8]* %25, i64 0, i64 0
  %27 = call i64 @strlen(i8* %26) #4
  %28 = trunc i64 %27 to i32
  %29 = load i32, i32* %3, align 4
  %30 = sext i32 %29 to i64
  %31 = getelementptr inbounds [100 x i32], [100 x i32]* %6, i64 0, i64 %30
  store i32 %28, i32* %31, align 4
  store i32 0, i32* %4, align 4
  br label %32

32:                                               ; preds = %54, %17
  %33 = load i32, i32* %4, align 4
  %34 = load i32, i32* %3, align 4
  %35 = sext i32 %34 to i64
  %36 = getelementptr inbounds [100 x i32], [100 x i32]* %6, i64 0, i64 %35
  %37 = load i32, i32* %36, align 4
  %38 = icmp slt i32 %33, %37
  br i1 %38, label %39, label %57

39:                                               ; preds = %32
  %40 = load i32, i32* %3, align 4
  %41 = sext i32 %40 to i64
  %42 = getelementptr inbounds [100 x [80 x i8]], [100 x [80 x i8]]* %8, i64 0, i64 %41
  %43 = load i32, i32* %4, align 4
  %44 = sext i32 %43 to i64
  %45 = getelementptr inbounds [80 x i8], [80 x i8]* %42, i64 0, i64 %44
  %46 = load i8, i8* %45, align 1
  %47 = sext i8 %46 to i32
  %48 = load i32, i32* %3, align 4
  %49 = sext i32 %48 to i64
  %50 = getelementptr inbounds [100 x [80 x i32]], [100 x [80 x i32]]* %5, i64 0, i64 %49
  %51 = load i32, i32* %4, align 4
  %52 = sext i32 %51 to i64
  %53 = getelementptr inbounds [80 x i32], [80 x i32]* %50, i64 0, i64 %52
  store i32 %47, i32* %53, align 4
  br label %54

54:                                               ; preds = %39
  %55 = load i32, i32* %4, align 4
  %56 = add nsw i32 %55, 1
  store i32 %56, i32* %4, align 4
  br label %32

57:                                               ; preds = %32
  store i32 1, i32* %7, align 4
  %58 = load i32, i32* %3, align 4
  %59 = sext i32 %58 to i64
  %60 = getelementptr inbounds [100 x [80 x i32]], [100 x [80 x i32]]* %5, i64 0, i64 %59
  %61 = getelementptr inbounds [80 x i32], [80 x i32]* %60, i64 0, i64 0
  %62 = load i32, i32* %61, align 16
  %63 = icmp sge i32 %62, 65
  br i1 %63, label %64, label %71

64:                                               ; preds = %57
  %65 = load i32, i32* %3, align 4
  %66 = sext i32 %65 to i64
  %67 = getelementptr inbounds [100 x [80 x i32]], [100 x [80 x i32]]* %5, i64 0, i64 %66
  %68 = getelementptr inbounds [80 x i32], [80 x i32]* %67, i64 0, i64 0
  %69 = load i32, i32* %68, align 16
  %70 = icmp sle i32 %69, 90
  br i1 %70, label %92, label %71

71:                                               ; preds = %64, %57
  %72 = load i32, i32* %3, align 4
  %73 = sext i32 %72 to i64
  %74 = getelementptr inbounds [100 x [80 x i32]], [100 x [80 x i32]]* %5, i64 0, i64 %73
  %75 = getelementptr inbounds [80 x i32], [80 x i32]* %74, i64 0, i64 0
  %76 = load i32, i32* %75, align 16
  %77 = icmp sge i32 %76, 97
  br i1 %77, label %78, label %85

78:                                               ; preds = %71
  %79 = load i32, i32* %3, align 4
  %80 = sext i32 %79 to i64
  %81 = getelementptr inbounds [100 x [80 x i32]], [100 x [80 x i32]]* %5, i64 0, i64 %80
  %82 = getelementptr inbounds [80 x i32], [80 x i32]* %81, i64 0, i64 0
  %83 = load i32, i32* %82, align 16
  %84 = icmp sle i32 %83, 122
  br i1 %84, label %92, label %85

85:                                               ; preds = %78, %71
  %86 = load i32, i32* %3, align 4
  %87 = sext i32 %86 to i64
  %88 = getelementptr inbounds [100 x [80 x i32]], [100 x [80 x i32]]* %5, i64 0, i64 %87
  %89 = getelementptr inbounds [80 x i32], [80 x i32]* %88, i64 0, i64 0
  %90 = load i32, i32* %89, align 16
  %91 = icmp eq i32 %90, 95
  br i1 %91, label %92, label %182

92:                                               ; preds = %85, %78, %64
  store i32 1, i32* %4, align 4
  br label %93

93:                                               ; preds = %167, %92
  %94 = load i32, i32* %4, align 4
  %95 = load i32, i32* %3, align 4
  %96 = sext i32 %95 to i64
  %97 = getelementptr inbounds [100 x i32], [100 x i32]* %6, i64 0, i64 %96
  %98 = load i32, i32* %97, align 4
  %99 = icmp slt i32 %94, %98
  br i1 %99, label %100, label %170

100:                                              ; preds = %93
  %101 = load i32, i32* %3, align 4
  %102 = sext i32 %101 to i64
  %103 = getelementptr inbounds [100 x [80 x i32]], [100 x [80 x i32]]* %5, i64 0, i64 %102
  %104 = load i32, i32* %4, align 4
  %105 = sext i32 %104 to i64
  %106 = getelementptr inbounds [80 x i32], [80 x i32]* %103, i64 0, i64 %105
  %107 = load i32, i32* %106, align 4
  %108 = icmp sge i32 %107, 65
  br i1 %108, label %109, label %118

109:                                              ; preds = %100
  %110 = load i32, i32* %3, align 4
  %111 = sext i32 %110 to i64
  %112 = getelementptr inbounds [100 x [80 x i32]], [100 x [80 x i32]]* %5, i64 0, i64 %111
  %113 = load i32, i32* %4, align 4
  %114 = sext i32 %113 to i64
  %115 = getelementptr inbounds [80 x i32], [80 x i32]* %112, i64 0, i64 %114
  %116 = load i32, i32* %115, align 4
  %117 = icmp sle i32 %116, 90
  br i1 %117, label %163, label %118

118:                                              ; preds = %109, %100
  %119 = load i32, i32* %3, align 4
  %120 = sext i32 %119 to i64
  %121 = getelementptr inbounds [100 x [80 x i32]], [100 x [80 x i32]]* %5, i64 0, i64 %120
  %122 = load i32, i32* %4, align 4
  %123 = sext i32 %122 to i64
  %124 = getelementptr inbounds [80 x i32], [80 x i32]* %121, i64 0, i64 %123
  %125 = load i32, i32* %124, align 4
  %126 = icmp sge i32 %125, 97
  br i1 %126, label %127, label %136

127:                                              ; preds = %118
  %128 = load i32, i32* %3, align 4
  %129 = sext i32 %128 to i64
  %130 = getelementptr inbounds [100 x [80 x i32]], [100 x [80 x i32]]* %5, i64 0, i64 %129
  %131 = load i32, i32* %4, align 4
  %132 = sext i32 %131 to i64
  %133 = getelementptr inbounds [80 x i32], [80 x i32]* %130, i64 0, i64 %132
  %134 = load i32, i32* %133, align 4
  %135 = icmp sle i32 %134, 122
  br i1 %135, label %163, label %136

136:                                              ; preds = %127, %118
  %137 = load i32, i32* %3, align 4
  %138 = sext i32 %137 to i64
  %139 = getelementptr inbounds [100 x [80 x i32]], [100 x [80 x i32]]* %5, i64 0, i64 %138
  %140 = load i32, i32* %4, align 4
  %141 = sext i32 %140 to i64
  %142 = getelementptr inbounds [80 x i32], [80 x i32]* %139, i64 0, i64 %141
  %143 = load i32, i32* %142, align 4
  %144 = icmp sge i32 %143, 48
  br i1 %144, label %145, label %154

145:                                              ; preds = %136
  %146 = load i32, i32* %3, align 4
  %147 = sext i32 %146 to i64
  %148 = getelementptr inbounds [100 x [80 x i32]], [100 x [80 x i32]]* %5, i64 0, i64 %147
  %149 = load i32, i32* %4, align 4
  %150 = sext i32 %149 to i64
  %151 = getelementptr inbounds [80 x i32], [80 x i32]* %148, i64 0, i64 %150
  %152 = load i32, i32* %151, align 4
  %153 = icmp sle i32 %152, 57
  br i1 %153, label %163, label %154

154:                                              ; preds = %145, %136
  %155 = load i32, i32* %3, align 4
  %156 = sext i32 %155 to i64
  %157 = getelementptr inbounds [100 x [80 x i32]], [100 x [80 x i32]]* %5, i64 0, i64 %156
  %158 = load i32, i32* %4, align 4
  %159 = sext i32 %158 to i64
  %160 = getelementptr inbounds [80 x i32], [80 x i32]* %157, i64 0, i64 %159
  %161 = load i32, i32* %160, align 4
  %162 = icmp eq i32 %161, 95
  br i1 %162, label %163, label %166

163:                                              ; preds = %154, %145, %127, %109
  %164 = load i32, i32* %7, align 4
  %165 = add nsw i32 %164, 1
  store i32 %165, i32* %7, align 4
  br label %166

166:                                              ; preds = %163, %154
  br label %167

167:                                              ; preds = %166
  %168 = load i32, i32* %4, align 4
  %169 = add nsw i32 %168, 1
  store i32 %169, i32* %4, align 4
  br label %93

170:                                              ; preds = %93
  %171 = load i32, i32* %7, align 4
  %172 = load i32, i32* %3, align 4
  %173 = sext i32 %172 to i64
  %174 = getelementptr inbounds [100 x i32], [100 x i32]* %6, i64 0, i64 %173
  %175 = load i32, i32* %174, align 4
  %176 = icmp eq i32 %171, %175
  br i1 %176, label %177, label %179

177:                                              ; preds = %170
  %178 = call i32 (i8*, ...) @printf(i8* getelementptr inbounds ([3 x i8], [3 x i8]* @.str.1, i64 0, i64 0))
  br label %181

179:                                              ; preds = %170
  %180 = call i32 (i8*, ...) @printf(i8* getelementptr inbounds ([3 x i8], [3 x i8]* @.str.2, i64 0, i64 0))
  br label %181

181:                                              ; preds = %179, %177
  br label %184

182:                                              ; preds = %85
  %183 = call i32 (i8*, ...) @printf(i8* getelementptr inbounds ([3 x i8], [3 x i8]* @.str.2, i64 0, i64 0))
  br label %184

184:                                              ; preds = %182, %181
  br label %185

185:                                              ; preds = %184
  %186 = load i32, i32* %3, align 4
  %187 = add nsw i32 %186, 1
  store i32 %187, i32* %3, align 4
  br label %13

188:                                              ; preds = %13
  ret i32 0
}

; Function Attrs: argmemonly nounwind willreturn
declare void @llvm.memset.p0i8.i64(i8* nocapture writeonly, i8, i64, i1 immarg) #1

declare dso_local i32 @__isoc99_scanf(i8*, ...) #2

declare dso_local i32 @getchar() #2

declare dso_local i32 @gets(...) #2

; Function Attrs: nounwind readonly
declare dso_local i64 @strlen(i8*) #3

declare dso_local i32 @printf(i8*, ...) #2


!llvm.module.flags = !{!0}
!llvm.ident = !{!1}

!0 = !{i32 1, !"wchar_size", i32 4}
!1 = !{!"clang version 10.0.0-4ubuntu1 "}
